; Function Attrs: mustprogress uwtable
define dso_local void @_ZN20cmWorkerPoolInternal9UVSlotEndEP10uv_async_s(ptr nocapture noundef readonly %0) #0 align 2 personality ptr @__gxx_personality_v0 {
  %2 = load ptr, ptr %0, align 8
  %3 = getelementptr inbounds i8, ptr %2, i64 272
  %4 = load ptr, ptr %3, align 8
  %5 = getelementptr inbounds i8, ptr %2, i64 280
  %6 = load ptr, ptr %5, align 8
  %.not.i.i = icmp eq ptr %6, %4
  br i1 %.not.i.i, label %_ZNSt6vectorISt10unique_ptrI18cmWorkerPoolWorkerSt14default_deleteIS1_EESaIS4_EE5clearEv.exit, label %.lr.ph.i.i.i.i.i

.lr.ph.i.i.i.i.i:                                 ; preds = %1, %_ZSt8_DestroyISt10unique_ptrI18cmWorkerPoolWorkerSt14default_deleteIS1_EEEvPT_.exit.i.i.i.i.i
  %.05.i.i.i.i.i = phi ptr [ %8, %_ZSt8_DestroyISt10unique_ptrI18cmWorkerPoolWorkerSt14default_deleteIS1_EEEvPT_.exit.i.i.i.i.i ], [ %4, %1 ]
  %7 = load ptr, ptr %.05.i.i.i.i.i, align 8
  %.not.i.i.i.i.i.i.i = icmp eq ptr %7, null
  br i1 %.not.i.i.i.i.i.i.i, label %_ZSt8_DestroyISt10unique_ptrI18cmWorkerPoolWorkerSt14default_deleteIS1_EEEvPT_.exit.i.i.i.i.i, label %_ZNKSt14default_deleteI18cmWorkerPoolWorkerEclEPS0_.exit.i.i.i.i.i.i.i

_ZNKSt14default_deleteI18cmWorkerPoolWorkerEclEPS0_.exit.i.i.i.i.i.i.i: ; preds = %.lr.ph.i.i.i.i.i
  tail call void @_ZN18cmWorkerPoolWorkerD2Ev(ptr noundef nonnull align 8 dereferenceable(120) %7) #20
  tail call void @_ZdlPv(ptr noundef nonnull %7) #23
  br label %_ZSt8_DestroyISt10unique_ptrI18cmWorkerPoolWorkerSt14default_deleteIS1_EEEvPT_.exit.i.i.i.i.i

_ZSt8_DestroyISt10unique_ptrI18cmWorkerPoolWorkerSt14default_deleteIS1_EEEvPT_.exit.i.i.i.i.i: ; preds = %_ZNKSt14default_deleteI18cmWorkerPoolWorkerEclEPS0_.exit.i.i.i.i.i.i.i, %.lr.ph.i.i.i.i.i
  store ptr null, ptr %.05.i.i.i.i.i, align 8
  %8 = getelementptr inbounds i8, ptr %.05.i.i.i.i.i, i64 8
  %.not.i.i.i.i.i = icmp eq ptr %8, %6
  br i1 %.not.i.i.i.i.i, label %_ZSt8_DestroyIPSt10unique_ptrI18cmWorkerPoolWorkerSt14default_deleteIS1_EES4_EvT_S6_RSaIT0_E.exit.i.i, label %.lr.ph.i.i.i.i.i, !llvm.loop !58

_ZSt8_DestroyIPSt10unique_ptrI18cmWorkerPoolWorkerSt14default_deleteIS1_EES4_EvT_S6_RSaIT0_E.exit.i.i: ; preds = %_ZSt8_DestroyISt10unique_ptrI18cmWorkerPoolWorkerSt14default_deleteIS1_EEEvPT_.exit.i.i.i.i.i
  store ptr %4, ptr %5, align 8
  br label %_ZNSt6vectorISt10unique_ptrI18cmWorkerPoolWorkerSt14default_deleteIS1_EESaIS4_EE5clearEv.exit

_ZNSt6vectorISt10unique_ptrI18cmWorkerPoolWorkerSt14default_deleteIS1_EESaIS4_EE5clearEv.exit: ; preds = %1, %_ZSt8_DestroyIPSt10unique_ptrI18cmWorkerPoolWorkerSt14default_deleteIS1_EES4_EvT_S6_RSaIT0_E.exit.i.i
  %9 = getelementptr inbounds i8, ptr %2, i64 24
  tail call void @_ZN2cm19uv_handle_ptr_base_I10uv_async_sE5resetEv(ptr noundef nonnull align 8 dereferenceable(16) %9)
  ret void
}